; ModuleID = '17/821.c'
source_filename = "17/821.c"
target datalayout = "e-m:e-p270:32:32-p271:32:32-p272:64:64-i64:64-f80:128-n8:16:32:64-S128"
target triple = "x86_64-pc-linux-gnu"

@.str = private unnamed_addr constant [4 x i8] c"%s\0A\00", align 1

; Function Attrs: noinline nounwind uwtable
define dso_local i32 @main() #0 {
  %1 = alloca i32, align 4
  %2 = alloca [101 x i8], align 16
  %3 = alloca [101 x i8], align 16
  %4 = alloca i32, align 4
  %5 = alloca i32, align 4
  %6 = alloca i32, align 4
  store i32 0, i32* %1, align 4
  br label %7

7:                                                ; preds = %115, %0
  %8 = bitcast [101 x i8]* %2 to i8*
  call void @llvm.memset.p0i8.i64(i8* align 16 %8, i8 0, i64 101, i1 false)
  %9 = bitcast [101 x i8]* %3 to i8*
  call void @llvm.memset.p0i8.i64(i8* align 16 %9, i8 0, i64 101, i1 false)
  %10 = getelementptr inbounds [101 x i8], [101 x i8]* %2, i64 0, i64 0
  %11 = call i32 (i8*, ...) bitcast (i32 (...)* @gets to i32 (i8*, ...)*)(i8* %10)
  %12 = getelementptr inbounds [101 x i8], [101 x i8]* %3, i64 0, i64 0
  %13 = getelementptr inbounds [101 x i8], [101 x i8]* %2, i64 0, i64 0
  %14 = call i8* @strcpy(i8* %12, i8* %13) #5
  %15 = getelementptr inbounds [101 x i8], [101 x i8]* %2, i64 0, i64 0
  %16 = call i64 @strlen(i8* %15) #6
  %17 = trunc i64 %16 to i32
  store i32 %17, i32* %5, align 4
  %18 = load i32, i32* %5, align 4
  %19 = icmp eq i32 %18, 0
  br i1 %19, label %20, label %21

20:                                               ; preds = %7
  br label %116

21:                                               ; preds = %7
  store i32 0, i32* %6, align 4
  br label %22

22:                                               ; preds = %73, %21
  %23 = load i32, i32* %6, align 4
  store i32 %23, i32* %4, align 4
  br label %24

24:                                               ; preds = %37, %22
  %25 = load i32, i32* %4, align 4
  %26 = load i32, i32* %5, align 4
  %27 = icmp slt i32 %25, %26
  br i1 %27, label %28, label %40

28:                                               ; preds = %24
  %29 = load i32, i32* %4, align 4
  %30 = sext i32 %29 to i64
  %31 = getelementptr inbounds [101 x i8], [101 x i8]* %2, i64 0, i64 %30
  %32 = load i8, i8* %31, align 1
  %33 = sext i8 %32 to i32
  %34 = icmp eq i32 %33, 41
  br i1 %34, label %35, label %36

35:                                               ; preds = %28
  br label %40

36:                                               ; preds = %28
  br label %37

37:                                               ; preds = %36
  %38 = load i32, i32* %4, align 4
  %39 = add nsw i32 %38, 1
  store i32 %39, i32* %4, align 4
  br label %24

40:                                               ; preds = %35, %24
  %41 = load i32, i32* %4, align 4
  store i32 %41, i32* %6, align 4
  %42 = load i32, i32* %6, align 4
  %43 = load i32, i32* %5, align 4
  %44 = icmp eq i32 %42, %43
  br i1 %44, label %45, label %46

45:                                               ; preds = %40
  br label %74

46:                                               ; preds = %40
  %47 = load i32, i32* %6, align 4
  store i32 %47, i32* %4, align 4
  br label %48

48:                                               ; preds = %66, %46
  %49 = load i32, i32* %4, align 4
  %50 = icmp sge i32 %49, 0
  br i1 %50, label %51, label %69

51:                                               ; preds = %48
  %52 = load i32, i32* %4, align 4
  %53 = sext i32 %52 to i64
  %54 = getelementptr inbounds [101 x i8], [101 x i8]* %2, i64 0, i64 %53
  %55 = load i8, i8* %54, align 1
  %56 = sext i8 %55 to i32
  %57 = icmp eq i32 %56, 40
  br i1 %57, label %58, label %65

58:                                               ; preds = %51
  %59 = load i32, i32* %4, align 4
  %60 = sext i32 %59 to i64
  %61 = getelementptr inbounds [101 x i8], [101 x i8]* %2, i64 0, i64 %60
  store i8 49, i8* %61, align 1
  %62 = load i32, i32* %6, align 4
  %63 = sext i32 %62 to i64
  %64 = getelementptr inbounds [101 x i8], [101 x i8]* %2, i64 0, i64 %63
  store i8 49, i8* %64, align 1
  br label %69

65:                                               ; preds = %51
  br label %66

66:                                               ; preds = %65
  %67 = load i32, i32* %4, align 4
  %68 = add nsw i32 %67, -1
  store i32 %68, i32* %4, align 4
  br label %48

69:                                               ; preds = %58, %48
  br label %70

70:                                               ; preds = %69
  %71 = load i32, i32* %6, align 4
  %72 = add nsw i32 %71, 1
  store i32 %72, i32* %6, align 4
  br label %73

73:                                               ; preds = %70
  br i1 true, label %22, label %74

74:                                               ; preds = %73, %45
  store i32 0, i32* %4, align 4
  br label %75

75:                                               ; preds = %107, %74
  %76 = load i32, i32* %4, align 4
  %77 = load i32, i32* %5, align 4
  %78 = icmp slt i32 %76, %77
  br i1 %78, label %79, label %110

79:                                               ; preds = %75
  %80 = load i32, i32* %4, align 4
  %81 = sext i32 %80 to i64
  %82 = getelementptr inbounds [101 x i8], [101 x i8]* %2, i64 0, i64 %81
  %83 = load i8, i8* %82, align 1
  %84 = sext i8 %83 to i32
  %85 = icmp eq i32 %84, 40
  br i1 %85, label %86, label %90

86:                                               ; preds = %79
  %87 = load i32, i32* %4, align 4
  %88 = sext i32 %87 to i64
  %89 = getelementptr inbounds [101 x i8], [101 x i8]* %2, i64 0, i64 %88
  store i8 36, i8* %89, align 1
  br label %106

90:                                               ; preds = %79
  %91 = load i32, i32* %4, align 4
  %92 = sext i32 %91 to i64
  %93 = getelementptr inbounds [101 x i8], [101 x i8]* %2, i64 0, i64 %92
  %94 = load i8, i8* %93, align 1
  %95 = sext i8 %94 to i32
  %96 = icmp eq i32 %95, 41
  br i1 %96, label %97, label %101

97:                                               ; preds = %90
  %98 = load i32, i32* %4, align 4
  %99 = sext i32 %98 to i64
  %100 = getelementptr inbounds [101 x i8], [101 x i8]* %2, i64 0, i64 %99
  store i8 63, i8* %100, align 1
  br label %105

101:                                              ; preds = %90
  %102 = load i32, i32* %4, align 4
  %103 = sext i32 %102 to i64
  %104 = getelementptr inbounds [101 x i8], [101 x i8]* %2, i64 0, i64 %103
  store i8 32, i8* %104, align 1
  br label %105

105:                                              ; preds = %101, %97
  br label %106

106:                                              ; preds = %105, %86
  br label %107

107:                                              ; preds = %106
  %108 = load i32, i32* %4, align 4
  %109 = add nsw i32 %108, 1
  store i32 %109, i32* %4, align 4
  br label %75

110:                                              ; preds = %75
  %111 = getelementptr inbounds [101 x i8], [101 x i8]* %3, i64 0, i64 0
  %112 = call i32 (i8*, ...) @printf(i8* getelementptr inbounds ([4 x i8], [4 x i8]* @.str, i64 0, i64 0), i8* %111)
  %113 = getelementptr inbounds [101 x i8], [101 x i8]* %2, i64 0, i64 0
  %114 = call i32 @puts(i8* %113)
  br label %115

115:                                              ; preds = %110
  br i1 true, label %7, label %116

116:                                              ; preds = %115, %20
  ret i32 0
}

; Function Attrs: argmemonly nounwind willreturn
declare void @llvm.memset.p0i8.i64(i8* nocapture writeonly, i8, i64, i1 immarg) #1

declare dso_local i32 @gets(...) #2

; Function Attrs: nounwind
declare dso_local i8* @strcpy(i8*, i8*) #3

; Function Attrs: nounwind readonly
declare dso_local i64 @strlen(i8*) #4

declare dso_local i32 @printf(i8*, ...) #2

declare dso_local i32 @puts(i8*) #2


!llvm.module.flags = !{!0}
!llvm.ident = !{!1}

!0 = !{i32 1, !"wchar_size", i32 4}
!1 = !{!"clang version 10.0.0-4ubuntu1 "}
